target datalayout = "e-m:e-p270:32:32-p271:32:32-p272:64:64-i64:64-i128:128-f80:128-n8:16:32:64-S128"
target triple = "x86_64-pc-linux-gnu"

%struct.ObjectAddress = type { i32, i32, i32 }
%struct.IntoClause = type { i32, ptr, ptr, ptr, ptr, i32, ptr, ptr, i8 }
%struct.DR_intorel = type { %struct._DestReceiver, ptr, ptr, %struct.ObjectAddress, i32, i32, ptr }
%struct._DestReceiver = type { ptr, ptr, ptr, ptr, i32 }
%struct.List = type { i32, i32, i32, ptr, [0 x %union.ListCell] }
%union.ListCell = type { ptr }
%struct.String = type { i32, ptr }
%struct.ColumnDef = type { i32, ptr, ptr, ptr, i16, i8, i8, i8, i8, ptr, ptr, ptr, i8, ptr, i8, ptr, i32, ptr, ptr, i32 }
%struct.TypeName = type { i32, ptr, i32, i8, i8, ptr, i32, ptr, i32 }
%struct.TupleDescData = type { i32, i32, i32, i32, ptr, [0 x %struct.CompactAttribute] }
%struct.CompactAttribute = type { i32, i16, i8, i8, i8, i8, i8, i8, i8 }
%struct.FormData_pg_attribute = type { i32, %struct.nameData, i32, i16, i16, i32, i16, i8, i8, i8, i8, i8, i8, i8, i8, i8, i8, i8, i16, i32 }
%struct.nameData = type { [64 x i8] }

@.str.1 = private unnamed_addr constant [11 x i8] c"createas.c\00", align 1
@.str.4 = private unnamed_addr constant [65 x i8] c"no collation was derived for column \22%s\22 with collatable type %s\00", align 1
@.str.5 = private unnamed_addr constant [56 x i8] c"Use the COLLATE clause to set the collation explicitly.\00", align 1
@.str.6 = private unnamed_addr constant [37 x i8] c"too many column names were specified\00", align 1
@__func__.intorel_startup = private unnamed_addr constant [16 x i8] c"intorel_startup\00", align 1
@.str.8 = private unnamed_addr constant [46 x i8] c"policies not yet implemented for this command\00", align 1

; Function Attrs: inlinehint nounwind uwtable
define internal ptr @lnext(ptr noundef %0, ptr noundef %1) #3 {
  %3 = alloca ptr, align 8
  %4 = alloca ptr, align 8
  %5 = alloca ptr, align 8
  store ptr %0, ptr %4, align 8
  store ptr %1, ptr %5, align 8
  %6 = load ptr, ptr %5, align 8
  %7 = getelementptr inbounds nuw %union.ListCell, ptr %6, i32 1
  store ptr %7, ptr %5, align 8
  %8 = load ptr, ptr %5, align 8
  %9 = load ptr, ptr %4, align 8
  %10 = getelementptr inbounds nuw %struct.List, ptr %9, i32 0, i32 3
  %11 = load ptr, ptr %10, align 8
  %12 = load ptr, ptr %4, align 8
  %13 = getelementptr inbounds nuw %struct.List, ptr %12, i32 0, i32 1
  %14 = load i32, ptr %13, align 4
  %15 = sext i32 %14 to i64
  %16 = getelementptr inbounds %union.ListCell, ptr %11, i64 %15
  %17 = icmp ult ptr %8, %16
  br i1 %17, label %18, label %20

18:                                               ; preds = %2
  %19 = load ptr, ptr %5, align 8
  store ptr %19, ptr %3, align 8
  br label %21

20:                                               ; preds = %2
  store ptr null, ptr %3, align 8
  br label %21

21:                                               ; preds = %20, %18
  %22 = load ptr, ptr %3, align 8
  ret ptr %22
}

; Function Attrs: inlinehint nounwind uwtable
define internal ptr @TupleDescAttr(ptr noundef %0, i32 noundef %1) #3 {
  %3 = alloca ptr, align 8
  %4 = alloca i32, align 4
  %5 = alloca ptr, align 8
  store ptr %0, ptr %3, align 8
  store i32 %1, ptr %4, align 4
  call void @llvm.lifetime.start.p0(i64 8, ptr %5) #7
  %6 = load ptr, ptr %3, align 8
  %7 = load ptr, ptr %3, align 8
  %8 = getelementptr inbounds nuw %struct.TupleDescData, ptr %7, i32 0, i32 0
  %9 = load i32, ptr %8, align 8
  %10 = sext i32 %9 to i64
  %11 = mul i64 %10, 16
  %12 = add i64 24, %11
  %13 = getelementptr inbounds nuw i8, ptr %6, i64 %12
  store ptr %13, ptr %5, align 8
  %14 = load ptr, ptr %5, align 8
  %15 = load i32, ptr %4, align 4
  %16 = sext i32 %15 to i64
  %17 = getelementptr inbounds %struct.FormData_pg_attribute, ptr %14, i64 %16
  call void @llvm.lifetime.end.p0(i64 8, ptr %5) #7
  ret ptr %17
}

; Function Attrs: inlinehint nounwind uwtable
define internal ptr @list_head(ptr noundef %0) #3 {
  %2 = alloca ptr, align 8
  store ptr %0, ptr %2, align 8
  %3 = load ptr, ptr %2, align 8
  %4 = icmp ne ptr %3, null
  br i1 %4, label %5, label %10

5:                                                ; preds = %1
  %6 = load ptr, ptr %2, align 8
  %7 = getelementptr inbounds nuw %struct.List, ptr %6, i32 0, i32 3
  %8 = load ptr, ptr %7, align 8
  %9 = getelementptr inbounds %union.ListCell, ptr %8, i64 0
  br label %11

10:                                               ; preds = %1
  br label %11

11:                                               ; preds = %10, %5
  %12 = phi ptr [ %9, %5 ], [ null, %10 ]
  ret ptr %12
}

; Function Attrs: nounwind uwtable
define internal void @intorel_startup(ptr noundef %0, i32 noundef %1, ptr noundef %2) #0 {
  %4 = alloca ptr, align 8
  %5 = alloca i32, align 4
  %6 = alloca ptr, align 8
  %7 = alloca ptr, align 8
  %8 = alloca ptr, align 8
  %9 = alloca i8, align 1
  %10 = alloca ptr, align 8
  %11 = alloca %struct.ObjectAddress, align 4
  %12 = alloca ptr, align 8
  %13 = alloca ptr, align 8
  %14 = alloca i32, align 4
  %15 = alloca ptr, align 8
  %16 = alloca ptr, align 8
  %17 = alloca ptr, align 8
  %18 = alloca %struct.ObjectAddress, align 4
  %19 = alloca { i64, i32 }, align 8
  store ptr %0, ptr %4, align 8
  store i32 %1, ptr %5, align 4
  store ptr %2, ptr %6, align 8
  call void @llvm.lifetime.start.p0(i64 8, ptr %7) #7
  %20 = load ptr, ptr %4, align 8
  store ptr %20, ptr %7, align 8
  call void @llvm.lifetime.start.p0(i64 8, ptr %8) #7
  %21 = load ptr, ptr %7, align 8
  %22 = getelementptr inbounds nuw %struct.DR_intorel, ptr %21, i32 0, i32 1
  %23 = load ptr, ptr %22, align 8
  store ptr %23, ptr %8, align 8
  call void @llvm.lifetime.start.p0(i64 1, ptr %9) #7
  call void @llvm.lifetime.start.p0(i64 8, ptr %10) #7
  call void @llvm.lifetime.start.p0(i64 12, ptr %11) #7
  call void @llvm.lifetime.start.p0(i64 8, ptr %12) #7
  call void @llvm.lifetime.start.p0(i64 8, ptr %13) #7
  call void @llvm.lifetime.start.p0(i64 4, ptr %14) #7
  %24 = load ptr, ptr %8, align 8
  %25 = getelementptr inbounds nuw %struct.IntoClause, ptr %24, i32 0, i32 7
  %26 = load ptr, ptr %25, align 8
  %27 = icmp ne ptr %26, null
  %28 = zext i1 %27 to i8
  store i8 %28, ptr %9, align 1
  store ptr null, ptr %10, align 8
  %29 = load ptr, ptr %8, align 8
  %30 = getelementptr inbounds nuw %struct.IntoClause, ptr %29, i32 0, i32 2
  %31 = load ptr, ptr %30, align 8
  %32 = call ptr @list_head(ptr noundef %31)
  store ptr %32, ptr %13, align 8
  store i32 0, ptr %14, align 4
  br label %33

33:                                               ; preds = %109, %3
  %34 = load i32, ptr %14, align 4
  %35 = load ptr, ptr %6, align 8
  %36 = getelementptr inbounds nuw %struct.TupleDescData, ptr %35, i32 0, i32 0
  %37 = load i32, ptr %36, align 8
  %38 = icmp slt i32 %34, %37
  br i1 %38, label %39, label %112

39:                                               ; preds = %33
  call void @llvm.lifetime.start.p0(i64 8, ptr %15) #7
  %40 = load ptr, ptr %6, align 8
  %41 = load i32, ptr %14, align 4
  %42 = call ptr @TupleDescAttr(ptr noundef %40, i32 noundef %41)
  store ptr %42, ptr %15, align 8
  call void @llvm.lifetime.start.p0(i64 8, ptr %16) #7
  call void @llvm.lifetime.start.p0(i64 8, ptr %17) #7
  %43 = load ptr, ptr %13, align 8
  %44 = icmp ne ptr %43, null
  br i1 %44, label %45, label %55

45:                                               ; preds = %39
  %46 = load ptr, ptr %13, align 8
  %47 = load ptr, ptr %46, align 8
  %48 = getelementptr inbounds nuw %struct.String, ptr %47, i32 0, i32 1
  %49 = load ptr, ptr %48, align 8
  store ptr %49, ptr %17, align 8
  %50 = load ptr, ptr %8, align 8
  %51 = getelementptr inbounds nuw %struct.IntoClause, ptr %50, i32 0, i32 2
  %52 = load ptr, ptr %51, align 8
  %53 = load ptr, ptr %13, align 8
  %54 = call ptr @lnext(ptr noundef %52, ptr noundef %53)
  store ptr %54, ptr %13, align 8
  br label %60

55:                                               ; preds = %39
  %56 = load ptr, ptr %15, align 8
  %57 = getelementptr inbounds nuw %struct.FormData_pg_attribute, ptr %56, i32 0, i32 1
  %58 = getelementptr inbounds nuw %struct.nameData, ptr %57, i32 0, i32 0
  %59 = getelementptr inbounds [64 x i8], ptr %58, i64 0, i64 0
  store ptr %59, ptr %17, align 8
  br label %60

60:                                               ; preds = %55, %45
  %61 = load ptr, ptr %17, align 8
  %62 = load ptr, ptr %15, align 8
  %63 = getelementptr inbounds nuw %struct.FormData_pg_attribute, ptr %62, i32 0, i32 2
  %64 = load i32, ptr %63, align 4
  %65 = load ptr, ptr %15, align 8
  %66 = getelementptr inbounds nuw %struct.FormData_pg_attribute, ptr %65, i32 0, i32 5
  %67 = load i32, ptr %66, align 4
  %68 = load ptr, ptr %15, align 8
  %69 = getelementptr inbounds nuw %struct.FormData_pg_attribute, ptr %68, i32 0, i32 19
  %70 = load i32, ptr %69, align 4
  %71 = call ptr @makeColumnDef(ptr noundef %61, i32 noundef %64, i32 noundef %67, i32 noundef %70)
  store ptr %71, ptr %16, align 8
  %72 = load ptr, ptr %16, align 8
  %73 = getelementptr inbounds nuw %struct.ColumnDef, ptr %72, i32 0, i32 16
  %74 = load i32, ptr %73, align 8
  %75 = icmp ne i32 %74, 0
  br i1 %75, label %105, label %76

76:                                               ; preds = %60
  %77 = load ptr, ptr %16, align 8
  %78 = getelementptr inbounds nuw %struct.ColumnDef, ptr %77, i32 0, i32 2
  %79 = load ptr, ptr %78, align 8
  %80 = getelementptr inbounds nuw %struct.TypeName, ptr %79, i32 0, i32 2
  %81 = load i32, ptr %80, align 8
  %82 = call zeroext i1 @type_is_collatable(i32 noundef %81)
  br i1 %82, label %83, label %105

83:                                               ; preds = %76
  br label %84

84:                                               ; preds = %83
  br i1 true, label %85, label %87

85:                                               ; preds = %84
  %86 = call zeroext i1 @errstart_cold(i32 noundef 21, ptr noundef null) #8
  br i1 %86, label %89, label %102

87:                                               ; preds = %84
  %88 = call zeroext i1 @errstart(i32 noundef 21, ptr noundef null)
  br i1 %88, label %89, label %102

89:                                               ; preds = %87, %85
  %90 = call i32 @errcode(i32 noundef 34209924)
  %91 = load ptr, ptr %16, align 8
  %92 = getelementptr inbounds nuw %struct.ColumnDef, ptr %91, i32 0, i32 1
  %93 = load ptr, ptr %92, align 8
  %94 = load ptr, ptr %16, align 8
  %95 = getelementptr inbounds nuw %struct.ColumnDef, ptr %94, i32 0, i32 2
  %96 = load ptr, ptr %95, align 8
  %97 = getelementptr inbounds nuw %struct.TypeName, ptr %96, i32 0, i32 2
  %98 = load i32, ptr %97, align 8
  %99 = call ptr @format_type_be(i32 noundef %98)
  %100 = call i32 (ptr, ...) @errmsg(ptr noundef @.str.4, ptr noundef %93, ptr noundef %99)
  %101 = call i32 (ptr, ...) @errhint(ptr noundef @.str.5)
  call void @errfinish(ptr noundef @.str.1, i32 noundef 513, ptr noundef @__func__.intorel_startup)
  br label %102

102:                                              ; preds = %89, %87, %85
  unreachable

103:                                              ; No predecessors!
  br label %104

104:                                              ; preds = %103
  br label %105

105:                                              ; preds = %104, %76, %60
  %106 = load ptr, ptr %10, align 8
  %107 = load ptr, ptr %16, align 8
  %108 = call ptr @lappend(ptr noundef %106, ptr noundef %107)
  store ptr %108, ptr %10, align 8
  call void @llvm.lifetime.end.p0(i64 8, ptr %17) #7
  call void @llvm.lifetime.end.p0(i64 8, ptr %16) #7
  call void @llvm.lifetime.end.p0(i64 8, ptr %15) #7
  br label %109

109:                                              ; preds = %105
  %110 = load i32, ptr %14, align 4
  %111 = add i32 %110, 1
  store i32 %111, ptr %14, align 4
  br label %33, !llvm.loop !8

112:                                              ; preds = %33
  %113 = load ptr, ptr %13, align 8
  %114 = icmp ne ptr %113, null
  br i1 %114, label %115, label %127

115:                                              ; preds = %112
  br label %116

116:                                              ; preds = %115
  br i1 true, label %117, label %119

117:                                              ; preds = %116
  %118 = call zeroext i1 @errstart_cold(i32 noundef 21, ptr noundef null) #8
  br i1 %118, label %121, label %124

119:                                              ; preds = %116
  %120 = call zeroext i1 @errstart(i32 noundef 21, ptr noundef null)
  br i1 %120, label %121, label %124

121:                                              ; preds = %119, %117
  %122 = call i32 @errcode(i32 noundef 16801924)
  %123 = call i32 (ptr, ...) @errmsg(ptr noundef @.str.6)
  call void @errfinish(ptr noundef @.str.1, i32 noundef 521, ptr noundef @__func__.intorel_startup)
  br label %124

124:                                              ; preds = %121, %119, %117
  unreachable

125:                                              ; No predecessors!
  br label %126

126:                                              ; preds = %125
  br label %127

127:                                              ; preds = %126, %112
  call void @llvm.lifetime.start.p0(i64 12, ptr %18) #7
  %128 = load ptr, ptr %10, align 8
  %129 = load ptr, ptr %8, align 8
  %130 = call { i64, i32 } @create_ctas_internal(ptr noundef %128, ptr noundef %129)
  store { i64, i32 } %130, ptr %19, align 8
  call void @llvm.memcpy.p0.p0.i64(ptr align 4 %18, ptr align 8 %19, i64 12, i1 false)
  call void @llvm.memcpy.p0.p0.i64(ptr align 4 %11, ptr align 4 %18, i64 12, i1 false)
  call void @llvm.lifetime.end.p0(i64 12, ptr %18) #7
  %131 = getelementptr inbounds nuw %struct.ObjectAddress, ptr %11, i32 0, i32 1
  %132 = load i32, ptr %131, align 4
  %133 = call ptr @table_open(i32 noundef %132, i32 noundef 8)
  store ptr %133, ptr %12, align 8
  %134 = getelementptr inbounds nuw %struct.ObjectAddress, ptr %11, i32 0, i32 1
  %135 = load i32, ptr %134, align 4
  %136 = call i32 @check_enable_rls(i32 noundef %135, i32 noundef 0, i1 noundef zeroext false)
  %137 = icmp eq i32 %136, 2
  br i1 %137, label %138, label %150

138:                                              ; preds = %127
  br label %139

139:                                              ; preds = %138
  br i1 true, label %140, label %142

140:                                              ; preds = %139
  %141 = call zeroext i1 @errstart_cold(i32 noundef 21, ptr noundef null) #8
  br i1 %141, label %144, label %147

142:                                              ; preds = %139
  %143 = call zeroext i1 @errstart(i32 noundef 21, ptr noundef null)
  br i1 %143, label %144, label %147

144:                                              ; preds = %142, %140
  %145 = call i32 @errcode(i32 noundef 1088)
  %146 = call i32 (ptr, ...) @errmsg(ptr noundef @.str.8)
  call void @errfinish(ptr noundef @.str.1, i32 noundef 544, ptr noundef @__func__.intorel_startup)
  br label %147

147:                                              ; preds = %144, %142, %140
  unreachable

148:                                              ; No predecessors!
  br label %149

149:                                              ; preds = %148
  br label %150

150:                                              ; preds = %149, %127
  %151 = load i8, ptr %9, align 1, !range !4, !noundef !5
  %152 = trunc i8 %151 to i1
  br i1 %152, label %153, label %160

153:                                              ; preds = %150
  %154 = load ptr, ptr %8, align 8
  %155 = getelementptr inbounds nuw %struct.IntoClause, ptr %154, i32 0, i32 8
  %156 = load i8, ptr %155, align 8, !range !4, !noundef !5
  %157 = trunc i8 %156 to i1
  br i1 %157, label %160, label %158

158:                                              ; preds = %153
  %159 = load ptr, ptr %12, align 8
  call void @SetMatViewPopulatedState(ptr noundef %159, i1 noundef zeroext true)
  br label %160

160:                                              ; preds = %158, %153, %150
  %161 = load ptr, ptr %12, align 8
  %162 = load ptr, ptr %7, align 8
  %163 = getelementptr inbounds nuw %struct.DR_intorel, ptr %162, i32 0, i32 2
  store ptr %161, ptr %163, align 8
  %164 = load ptr, ptr %7, align 8
  %165 = getelementptr inbounds nuw %struct.DR_intorel, ptr %164, i32 0, i32 3
  call void @llvm.memcpy.p0.p0.i64(ptr align 8 %165, ptr align 4 %11, i64 12, i1 false)
  %166 = call i32 @GetCurrentCommandId(i1 noundef zeroext true)
  %167 = load ptr, ptr %7, align 8
  %168 = getelementptr inbounds nuw %struct.DR_intorel, ptr %167, i32 0, i32 4
  store i32 %166, ptr %168, align 4
  %169 = load ptr, ptr %7, align 8
  %170 = getelementptr inbounds nuw %struct.DR_intorel, ptr %169, i32 0, i32 5
  store i32 2, ptr %170, align 8
  %171 = load ptr, ptr %8, align 8
  %172 = getelementptr inbounds nuw %struct.IntoClause, ptr %171, i32 0, i32 8
  %173 = load i8, ptr %172, align 8, !range !4, !noundef !5
  %174 = trunc i8 %173 to i1
  br i1 %174, label %179, label %175

175:                                              ; preds = %160
  %176 = call ptr @GetBulkInsertState()
  %177 = load ptr, ptr %7, align 8
  %178 = getelementptr inbounds nuw %struct.DR_intorel, ptr %177, i32 0, i32 6
  store ptr %176, ptr %178, align 8
  br label %182

179:                                              ; preds = %160
  %180 = load ptr, ptr %7, align 8
  %181 = getelementptr inbounds nuw %struct.DR_intorel, ptr %180, i32 0, i32 6
  store ptr null, ptr %181, align 8
  br label %182

182:                                              ; preds = %179, %175
  call void @llvm.lifetime.end.p0(i64 4, ptr %14) #7
  call void @llvm.lifetime.end.p0(i64 8, ptr %13) #7
  call void @llvm.lifetime.end.p0(i64 8, ptr %12) #7
  call void @llvm.lifetime.end.p0(i64 12, ptr %11) #7
  call void @llvm.lifetime.end.p0(i64 8, ptr %10) #7
  call void @llvm.lifetime.end.p0(i64 1, ptr %9) #7
  call void @llvm.lifetime.end.p0(i64 8, ptr %8) #7
  call void @llvm.lifetime.end.p0(i64 8, ptr %7) #7
  ret void
}