; Function Attrs: nounwind uwtable
define internal void @intorel_startup(ptr noundef captures(none) %0, i32 %1, ptr noundef %2) #0 {
  %4 = getelementptr inbounds nuw i8, ptr %0, i64 40
  %5 = load ptr, ptr %4, align 8
  %6 = getelementptr inbounds nuw i8, ptr %5, i64 56
  %7 = load ptr, ptr %6, align 8
  %.not = icmp eq ptr %7, null
  %8 = getelementptr inbounds nuw i8, ptr %5, i64 16
  %9 = load ptr, ptr %8, align 8
  %.not.i = icmp eq ptr %9, null
  br i1 %.not.i, label %list_head.exit, label %10

10:                                               ; preds = %3
  %11 = getelementptr inbounds nuw i8, ptr %9, i64 16
  %12 = load ptr, ptr %11, align 8
  br label %list_head.exit

list_head.exit:                                   ; preds = %3, %10
  %13 = phi ptr [ %12, %10 ], [ null, %3 ]
  %invariant.gep = getelementptr i8, ptr %2, i64 24
  %14 = load i32, ptr %2, align 8
  %15 = icmp sgt i32 %14, 0
  br i1 %15, label %.lr.ph, label %._crit_edge

.lr.ph:                                           ; preds = %list_head.exit, %61
  %indvars.iv = phi i64 [ %indvars.iv.next, %61 ], [ 0, %list_head.exit ]
  %16 = phi i32 [ %63, %61 ], [ %14, %list_head.exit ]
  %.054 = phi ptr [ %62, %61 ], [ null, %list_head.exit ]
  %.04153 = phi ptr [ %.1, %61 ], [ %13, %list_head.exit ]
  %17 = sext i32 %16 to i64
  %18 = shl nsw i64 %17, 4
  %gep = getelementptr i8, ptr %invariant.gep, i64 %18
  %19 = getelementptr inbounds nuw %struct.FormData_pg_attribute, ptr %gep, i64 %indvars.iv
  %.not45 = icmp eq ptr %.04153, null
  br i1 %.not45, label %31, label %20

20:                                               ; preds = %.lr.ph
  %21 = load ptr, ptr %.04153, align 8
  %22 = getelementptr inbounds nuw i8, ptr %21, i64 8
  %23 = load ptr, ptr %22, align 8
  %24 = load ptr, ptr %8, align 8
  %25 = getelementptr i8, ptr %24, i64 4
  %.val = load i32, ptr %25, align 4
  %26 = getelementptr i8, ptr %24, i64 16
  %.val47 = load ptr, ptr %26, align 8
  %27 = getelementptr inbounds nuw i8, ptr %.04153, i64 8
  %28 = sext i32 %.val to i64
  %29 = getelementptr inbounds %union.ListCell, ptr %.val47, i64 %28
  %30 = icmp ult ptr %27, %29
  %..i = select i1 %30, ptr %27, ptr null
  br label %33

31:                                               ; preds = %.lr.ph
  %32 = getelementptr inbounds nuw i8, ptr %19, i64 4
  br label %33

33:                                               ; preds = %31, %20
  %.043 = phi ptr [ %23, %20 ], [ %32, %31 ]
  %.1 = phi ptr [ %..i, %20 ], [ null, %31 ]
  %34 = getelementptr inbounds nuw i8, ptr %19, i64 68
  %35 = load i32, ptr %34, align 4
  %36 = getelementptr inbounds nuw i8, ptr %19, i64 76
  %37 = load i32, ptr %36, align 4
  %38 = getelementptr inbounds nuw i8, ptr %19, i64 96
  %39 = load i32, ptr %38, align 4
  %40 = tail call ptr @makeColumnDef(ptr noundef %.043, i32 noundef %35, i32 noundef %37, i32 noundef %39) #8
  %41 = getelementptr inbounds nuw i8, ptr %40, i64 96
  %42 = load i32, ptr %41, align 8
  %.not46 = icmp eq i32 %42, 0
  br i1 %.not46, label %43, label %61

43:                                               ; preds = %33
  %44 = getelementptr inbounds nuw i8, ptr %40, i64 16
  %45 = load ptr, ptr %44, align 8
  %46 = getelementptr inbounds nuw i8, ptr %45, i64 16
  %47 = load i32, ptr %46, align 8
  %48 = tail call zeroext i1 @type_is_collatable(i32 noundef %47) #8
  br i1 %48, label %49, label %61

49:                                               ; preds = %43
  %50 = getelementptr inbounds nuw i8, ptr %40, i64 16
  %51 = tail call zeroext i1 @errstart_cold(i32 noundef 21, ptr noundef null) #9
  tail call void @llvm.assume(i1 %51)
  %52 = tail call i32 @errcode(i32 noundef 34209924) #8
  %53 = getelementptr inbounds nuw i8, ptr %40, i64 8
  %54 = load ptr, ptr %53, align 8
  %55 = load ptr, ptr %50, align 8
  %56 = getelementptr inbounds nuw i8, ptr %55, i64 16
  %57 = load i32, ptr %56, align 8
  %58 = tail call ptr @format_type_be(i32 noundef %57) #8
  %59 = tail call i32 (ptr, ...) @errmsg(ptr noundef nonnull @.str.4, ptr noundef %54, ptr noundef %58) #8
  %60 = tail call i32 (ptr, ...) @errhint(ptr noundef nonnull @.str.5) #8
  tail call void @errfinish(ptr noundef nonnull @.str.1, i32 noundef 513, ptr noundef nonnull @__func__.intorel_startup) #8
  unreachable

61:                                               ; preds = %43, %33
  %62 = tail call ptr @lappend(ptr noundef %.054, ptr noundef nonnull %40) #8
  %indvars.iv.next = add nuw nsw i64 %indvars.iv, 1
  %63 = load i32, ptr %2, align 8
  %64 = sext i32 %63 to i64
  %65 = icmp slt i64 %indvars.iv.next, %64
  br i1 %65, label %.lr.ph, label %._crit_edge, !llvm.loop !6

._crit_edge:                                      ; preds = %61, %list_head.exit
  %.041.lcssa = phi ptr [ %13, %list_head.exit ], [ %.1, %61 ]
  %.0.lcssa = phi ptr [ null, %list_head.exit ], [ %62, %61 ]
  %.not44 = icmp eq ptr %.041.lcssa, null
  br i1 %.not44, label %70, label %66

66:                                               ; preds = %._crit_edge
  %67 = tail call zeroext i1 @errstart_cold(i32 noundef 21, ptr noundef null) #9
  tail call void @llvm.assume(i1 %67)
  %68 = tail call i32 @errcode(i32 noundef 16801924) #8
  %69 = tail call i32 (ptr, ...) @errmsg(ptr noundef nonnull @.str.6) #8
  tail call void @errfinish(ptr noundef nonnull @.str.1, i32 noundef 521, ptr noundef nonnull @__func__.intorel_startup) #8
  unreachable

70:                                               ; preds = %._crit_edge
  %71 = tail call fastcc { i64, i32 } @create_ctas_internal(ptr noundef %.0.lcssa, ptr noundef %5)
  %.fca.0.extract = extractvalue { i64, i32 } %71, 0
  %.fca.1.extract = extractvalue { i64, i32 } %71, 1
  %.sroa.019.sroa.4.0.extract.shift = lshr i64 %.fca.0.extract, 32
  %.sroa.019.sroa.4.0.extract.trunc = trunc nuw i64 %.sroa.019.sroa.4.0.extract.shift to i32
  %72 = tail call ptr @table_open(i32 noundef %.sroa.019.sroa.4.0.extract.trunc, i32 noundef 8) #8
  %73 = tail call i32 @check_enable_rls(i32 noundef %.sroa.019.sroa.4.0.extract.trunc, i32 noundef 0, i1 noundef zeroext false) #8
  %74 = icmp eq i32 %73, 2
  br i1 %74, label %75, label %79

75:                                               ; preds = %70
  %76 = tail call zeroext i1 @errstart_cold(i32 noundef 21, ptr noundef null) #9
  tail call void @llvm.assume(i1 %76)
  %77 = tail call i32 @errcode(i32 noundef 1088) #8
  %78 = tail call i32 (ptr, ...) @errmsg(ptr noundef nonnull @.str.8) #8
  tail call void @errfinish(ptr noundef nonnull @.str.1, i32 noundef 544, ptr noundef nonnull @__func__.intorel_startup) #8
  unreachable

79:                                               ; preds = %70
  br i1 %.not, label %85, label %80

80:                                               ; preds = %79
  %81 = getelementptr inbounds nuw i8, ptr %5, i64 64
  %82 = load i8, ptr %81, align 8, !range !4, !noundef !5
  %83 = trunc nuw i8 %82 to i1
  br i1 %83, label %85, label %84

84:                                               ; preds = %80
  tail call void @SetMatViewPopulatedState(ptr noundef %72, i1 noundef zeroext true) #8
  br label %85

85:                                               ; preds = %84, %80, %79
  %86 = getelementptr inbounds nuw i8, ptr %0, i64 48
  store ptr %72, ptr %86, align 8
  %87 = getelementptr inbounds nuw i8, ptr %0, i64 56
  store i64 %.fca.0.extract, ptr %87, align 8
  %.sroa.6.0..sroa_idx = getelementptr inbounds nuw i8, ptr %0, i64 64
  store i32 %.fca.1.extract, ptr %.sroa.6.0..sroa_idx, align 8
  %88 = tail call i32 @GetCurrentCommandId(i1 noundef zeroext true) #8
  %89 = getelementptr inbounds nuw i8, ptr %0, i64 68
  store i32 %88, ptr %89, align 4
  %90 = getelementptr inbounds nuw i8, ptr %0, i64 72
  store i32 2, ptr %90, align 8
  %91 = getelementptr inbounds nuw i8, ptr %5, i64 64
  %92 = load i8, ptr %91, align 8, !range !4, !noundef !5
  %93 = trunc nuw i8 %92 to i1
  br i1 %93, label %96, label %94

94:                                               ; preds = %85
  %95 = tail call ptr @GetBulkInsertState() #8
  br label %96

96:                                               ; preds = %85, %94
  %.sink = phi ptr [ %95, %94 ], [ null, %85 ]
  %97 = getelementptr inbounds nuw i8, ptr %0, i64 80
  store ptr %.sink, ptr %97, align 8
  ret void
}